target datalayout = "e-m:e-p270:32:32-p271:32:32-p272:64:64-i64:64-i128:128-f80:128-n8:16:32:64-S128"
target triple = "x86_64-unknown-linux-gnu"

%"class.std::__cxx11::basic_string" = type { %"struct.std::__cxx11::basic_string<char>::_Alloc_hider", i64, %union.anon }
%"struct.std::__cxx11::basic_string<char>::_Alloc_hider" = type { ptr }
%union.anon = type { i64, [8 x i8] }
%"class.proxygen::HTTP2Codec" = type <{ %"class.proxygen::HTTPParallelCodec.base", [4 x i8], %"class.proxygen::HPACK::StreamingCallback", %"class.proxygen::HPACKCodec", %"struct.proxygen::http2::FrameHeader", [4 x i8], i64, %"class.folly::Optional", i8, i8, i8, [5 x i8], %"class.std::unordered_set", i16, [6 x i8], %"class.folly::IOBufQueue", %"class.folly::IOBufQueue", %"class.proxygen::HTTPSettings", %"class.proxygen::HTTPSettings", i8, [7 x i8], %"class.std::__cxx11::basic_string", i64, i64, %"class.proxygen::HeaderDecodeInfo", %"class.std::vector.39", %"class.folly::Optional.37", i8, i8, i8, i8, i8, i8, [2 x i8] }>
%"class.proxygen::HTTPParallelCodec.base" = type <{ %"class.proxygen::HTTPCodec", i8, [7 x i8], i64, i64, ptr, i64, i64, %"class.std::__cxx11::basic_string", i32 }>
%"class.proxygen::HTTPCodec" = type { ptr }
%"class.proxygen::HPACK::StreamingCallback" = type { ptr, ptr }
%"class.proxygen::HPACKCodec" = type { %"class.proxygen::HeaderCodec", %"class.proxygen::HPACKEncoder", %"class.proxygen::HPACKDecoder", %"class.std::vector" }
%"class.proxygen::HeaderCodec" = type { ptr, %"struct.proxygen::HTTPHeaderSize", i32, i64, ptr }
%"struct.proxygen::HTTPHeaderSize" = type { i32, i32, i32 }
%"class.proxygen::HPACKEncoder" = type { %"class.proxygen::HPACKEncoderBase.base", [7 x i8], %"class.proxygen::HPACKContext.base", [4 x i8] }
%"class.proxygen::HPACKEncoderBase.base" = type <{ ptr, %"class.proxygen::HPACKEncodeBuffer", i8 }>
%"class.proxygen::HPACKEncodeBuffer" = type <{ %"class.folly::IOBufQueue", ptr, %"class.folly::io::QueueAppender", i32, i32, i32, [4 x i8] }>
%"class.folly::io::QueueAppender" = type { %"class.folly::IOBufQueue::WritableRangeCache", i64 }
%"class.folly::IOBufQueue::WritableRangeCache" = type { %"struct.folly::IOBufQueue::WritableRangeCacheData", ptr }
%"struct.folly::IOBufQueue::WritableRangeCacheData" = type <{ %"struct.std::pair", i8, [7 x i8] }>
%"struct.std::pair" = type { ptr, ptr }
%"class.proxygen::HPACKContext.base" = type <{ %"class.proxygen::HeaderTable", i32 }>
%"class.proxygen::HeaderTable" = type { ptr, i32, i32, %"class.std::vector", i32, i32, i32, i8, %"class.folly::F14FastMap" }
%"class.folly::F14FastMap" = type { %"class.folly::f14::detail::F14VectorMapImpl" }
%"class.folly::f14::detail::F14VectorMapImpl" = type { %"class.folly::f14::detail::F14BasicMap" }
%"class.folly::f14::detail::F14BasicMap" = type { %"class.folly::f14::detail::F14Table" }
%"class.folly::f14::detail::F14Table" = type { %"class.folly::f14::detail::VectorContainerPolicy", ptr, %"struct.folly::f14::detail::SizeAndChunkShiftAndPackedBegin" }
%"class.folly::f14::detail::VectorContainerPolicy" = type { ptr }
%"struct.folly::f14::detail::SizeAndChunkShiftAndPackedBegin" = type { %"struct.folly::f14::detail::PackedSizeAndChunkShift" }
%"struct.folly::f14::detail::PackedSizeAndChunkShift" = type { i64 }
%"class.proxygen::HPACKDecoder" = type <{ %"class.proxygen::HPACKDecoderBase", %"class.proxygen::HPACKContext.base", [4 x i8] }>
%"class.proxygen::HPACKDecoderBase" = type { i8, i32, i64 }
%"class.std::vector" = type { %"struct.std::_Vector_base" }
%"struct.std::_Vector_base" = type { %"struct.std::_Vector_base<proxygen::HPACKHeader, std::allocator<proxygen::HPACKHeader>>::_Vector_impl" }
%"struct.std::_Vector_base<proxygen::HPACKHeader, std::allocator<proxygen::HPACKHeader>>::_Vector_impl" = type { %"struct.std::_Vector_base<proxygen::HPACKHeader, std::allocator<proxygen::HPACKHeader>>::_Vector_impl_data" }
%"struct.std::_Vector_base<proxygen::HPACKHeader, std::allocator<proxygen::HPACKHeader>>::_Vector_impl_data" = type { ptr, ptr, ptr }
%"struct.proxygen::http2::FrameHeader" = type { i32, i32, i8, i8, i16 }
%"class.folly::Optional" = type { %"struct.folly::Optional<unsigned long>::StorageTriviallyDestructible" }
%"struct.folly::Optional<unsigned long>::StorageTriviallyDestructible" = type <{ %union.anon.15, i8, [7 x i8] }>
%union.anon.15 = type { i64 }
%"class.std::unordered_set" = type { %"class.std::_Hashtable" }
%"class.std::_Hashtable" = type { ptr, i64, %"struct.std::__detail::_Hash_node_base", i64, %"struct.std::__detail::_Prime_rehash_policy", ptr }
%"struct.std::__detail::_Hash_node_base" = type { ptr }
%"struct.std::__detail::_Prime_rehash_policy" = type { float, i64 }
%"class.folly::IOBufQueue" = type { %"struct.folly::IOBufQueue::Options", i64, %"class.std::unique_ptr", ptr, ptr, %"struct.folly::IOBufQueue::WritableRangeCacheData", ptr }
%"struct.folly::IOBufQueue::Options" = type { i8 }
%"class.std::unique_ptr" = type { %"struct.std::__uniq_ptr_data" }
%"struct.std::__uniq_ptr_data" = type { %"class.std::__uniq_ptr_impl" }
%"class.std::__uniq_ptr_impl" = type { %"class.std::tuple" }
%"class.std::tuple" = type { %"struct.std::_Tuple_impl" }
%"struct.std::_Tuple_impl" = type { %"struct.std::_Head_base.6" }
%"struct.std::_Head_base.6" = type { ptr }
%"class.proxygen::HTTPSettings" = type { %"class.std::vector.24" }
%"class.std::vector.24" = type { %"struct.std::_Vector_base.25" }
%"struct.std::_Vector_base.25" = type { %"struct.std::_Vector_base<proxygen::HTTPSetting, std::allocator<proxygen::HTTPSetting>>::_Vector_impl" }
%"struct.std::_Vector_base<proxygen::HTTPSetting, std::allocator<proxygen::HTTPSetting>>::_Vector_impl" = type { %"struct.std::_Vector_base<proxygen::HTTPSetting, std::allocator<proxygen::HTTPSetting>>::_Vector_impl_data" }
%"struct.std::_Vector_base<proxygen::HTTPSetting, std::allocator<proxygen::HTTPSetting>>::_Vector_impl_data" = type { ptr, ptr, ptr }
%"class.proxygen::HeaderDecodeInfo" = type <{ %"class.std::unique_ptr.29", %"class.proxygen::HTTPRequestVerifier", %"class.std::__cxx11::basic_string", %"class.std::__cxx11::basic_string", i8, i8, i8, i8, i8, i8, i8, i8, i8, [3 x i8], %"class.folly::Optional.37", [4 x i8] }>
%"class.std::unique_ptr.29" = type { %"struct.std::__uniq_ptr_data.30" }
%"struct.std::__uniq_ptr_data.30" = type { %"class.std::__uniq_ptr_impl.31" }
%"class.std::__uniq_ptr_impl.31" = type { %"class.std::tuple.32" }
%"class.std::tuple.32" = type { %"struct.std::_Tuple_impl.33" }
%"struct.std::_Tuple_impl.33" = type { %"struct.std::_Head_base.36" }
%"struct.std::_Head_base.36" = type { ptr }
%"class.proxygen::HTTPRequestVerifier" = type <{ %"class.std::__cxx11::basic_string", ptr, i8, i8, i8, i8, i8, [3 x i8] }>
%"class.std::vector.39" = type { %"struct.std::_Vector_base.40" }
%"struct.std::_Vector_base.40" = type { %"struct.std::_Vector_base<unsigned long, std::allocator<unsigned long>>::_Vector_impl" }
%"struct.std::_Vector_base<unsigned long, std::allocator<unsigned long>>::_Vector_impl" = type { %"struct.std::_Vector_base<unsigned long, std::allocator<unsigned long>>::_Vector_impl_data" }
%"struct.std::_Vector_base<unsigned long, std::allocator<unsigned long>>::_Vector_impl_data" = type { ptr, ptr, ptr }
%"class.folly::Optional.37" = type { %"struct.folly::Optional<unsigned int>::StorageTriviallyDestructible" }
%"struct.folly::Optional<unsigned int>::StorageTriviallyDestructible" = type <{ %union.anon.38, i8, [3 x i8] }>
%union.anon.38 = type { i32 }
%"class.proxygen::HTTPParallelCodec" = type <{ %"class.proxygen::HTTPCodec", i8, [7 x i8], i64, i64, ptr, i64, i64, %"class.std::__cxx11::basic_string", i32, [4 x i8] }>

; Function Attrs: mustprogress nounwind uwtable
define noundef zeroext i1 @_ZNK8proxygen10HTTP2Codec14parsingHeadersEv(ptr noundef nonnull align 8 dereferenceable(1062) %this) #5 align 2 {
entry:
  %this.addr = alloca ptr, align 8
  store ptr %this, ptr %this.addr, align 8
  %this1 = load ptr, ptr %this.addr, align 8
  %curHeader_ = getelementptr inbounds %"class.proxygen::HTTP2Codec", ptr %this1, i32 0, i32 4
  %type = getelementptr inbounds %"struct.proxygen::http2::FrameHeader", ptr %curHeader_, i32 0, i32 2
  %0 = load i8, ptr %type, align 8
  %cmp = icmp eq i8 %0, 1
  br i1 %cmp, label %lor.end, label %lor.rhs

lor.rhs:                                          ; preds = %entry
  %curHeader_2 = getelementptr inbounds %"class.proxygen::HTTP2Codec", ptr %this1, i32 0, i32 4
  %type3 = getelementptr inbounds %"struct.proxygen::http2::FrameHeader", ptr %curHeader_2, i32 0, i32 2
  %1 = load i8, ptr %type3, align 8
  %cmp4 = icmp eq i8 %1, 9
  br i1 %cmp4, label %land.rhs, label %land.end

land.rhs:                                         ; preds = %lor.rhs
  %headerBlockFrameType_ = getelementptr inbounds %"class.proxygen::HTTP2Codec", ptr %this1, i32 0, i32 32
  %2 = load i8, ptr %headerBlockFrameType_, align 1
  %cmp5 = icmp eq i8 %2, 1
  br label %land.end

land.end:                                         ; preds = %land.rhs, %lor.rhs
  %3 = phi i1 [ false, %lor.rhs ], [ %cmp5, %land.rhs ]
  br label %lor.end

lor.end:                                          ; preds = %land.end, %entry
  %4 = phi i1 [ true, %entry ], [ %3, %land.end ]
  ret i1 %4
}

; Function Attrs: mustprogress uwtable
define noundef zeroext i1 @_ZNK8proxygen10HTTP2Codec15parsingTrailersEv(ptr noundef nonnull align 8 dereferenceable(1062) %this) #4 align 2 {
entry:
  %retval = alloca i1, align 1
  %this.addr = alloca ptr, align 8
  store ptr %this, ptr %this.addr, align 8
  %this1 = load ptr, ptr %this.addr, align 8
  %call = call noundef zeroext i1 @_ZNK8proxygen10HTTP2Codec14parsingHeadersEv(ptr noundef nonnull align 8 dereferenceable(1062) %this1)
  br i1 %call, label %if.then, label %if.end

if.then:                                          ; preds = %entry
  %transportDirection_ = getelementptr inbounds %"class.proxygen::HTTPParallelCodec", ptr %this1, i32 0, i32 1
  %0 = load i8, ptr %transportDirection_, align 8
  %cmp = icmp eq i8 %0, 0
  br i1 %cmp, label %if.then2, label %if.else

if.then2:                                         ; preds = %if.then
  %parsingDownstreamTrailers_ = getelementptr inbounds %"class.proxygen::HTTP2Codec", ptr %this1, i32 0, i32 28
  %1 = load i8, ptr %parsingDownstreamTrailers_, align 1
  %tobool = trunc i8 %1 to i1
  store i1 %tobool, ptr %retval, align 1
  br label %return

if.else:                                          ; preds = %if.then
  %decodeInfo_ = getelementptr inbounds %"class.proxygen::HTTP2Codec", ptr %this1, i32 0, i32 24
  %parsingError = getelementptr inbounds %"class.proxygen::HeaderDecodeInfo", ptr %decodeInfo_, i32 0, i32 2
  %call3 = call noundef zeroext i1 @_ZNKSt7__cxx1112basic_stringIcSt11char_traitsIcESaIcEE5emptyEv(ptr noundef nonnull align 8 dereferenceable(32) %parsingError) #3
  br i1 %call3, label %land.rhs, label %land.end

land.rhs:                                         ; preds = %if.else
  %decodeInfo_4 = getelementptr inbounds %"class.proxygen::HTTP2Codec", ptr %this1, i32 0, i32 24
  %call5 = call noundef zeroext i1 @_ZNK8proxygen16HeaderDecodeInfo9hasStatusEv(ptr noundef nonnull align 8 dereferenceable(140) %decodeInfo_4)
  %lnot = xor i1 %call5, true
  br label %land.end

land.end:                                         ; preds = %land.rhs, %if.else
  %2 = phi i1 [ false, %if.else ], [ %lnot, %land.rhs ]
  store i1 %2, ptr %retval, align 1
  br label %return

if.end:                                           ; preds = %entry
  store i1 false, ptr %retval, align 1
  br label %return

return:                                           ; preds = %if.end, %land.end, %if.then2
  %3 = load i1, ptr %retval, align 1
  ret i1 %3
}