; Function Attrs: mustprogress uwtable
define noundef zeroext i1 @_ZNK8proxygen10HTTP2Codec15parsingTrailersEv(ptr noundef nonnull align 8 dereferenceable(1062) %this) local_unnamed_addr #3 align 2 {
entry:
  %type.i = getelementptr inbounds i8, ptr %this, i64 528
  %0 = load i8, ptr %type.i, align 8
  switch i8 %0, label %return [
    i8 1, label %if.then
    i8 9, label %_ZNK8proxygen10HTTP2Codec14parsingHeadersEv.exit
  ]

_ZNK8proxygen10HTTP2Codec14parsingHeadersEv.exit: ; preds = %entry
  %headerBlockFrameType_.i = getelementptr inbounds i8, ptr %this, i64 1061
  %1 = load i8, ptr %headerBlockFrameType_.i, align 1
  %cmp5.i = icmp eq i8 %1, 1
  br i1 %cmp5.i, label %if.then, label %return

if.then:                                          ; preds = %entry, %_ZNK8proxygen10HTTP2Codec14parsingHeadersEv.exit
  %transportDirection_ = getelementptr inbounds i8, ptr %this, i64 8
  %2 = load i8, ptr %transportDirection_, align 8
  %cmp = icmp eq i8 %2, 0
  br i1 %cmp, label %if.then2, label %if.else

if.then2:                                         ; preds = %if.then
  %parsingDownstreamTrailers_ = getelementptr inbounds i8, ptr %this, i64 1057
  %3 = load i8, ptr %parsingDownstreamTrailers_, align 1
  %4 = and i8 %3, 1
  %tobool = icmp ne i8 %4, 0
  br label %return

if.else:                                          ; preds = %if.then
  %parsingError = getelementptr inbounds i8, ptr %this, i64 936
  %call3 = tail call noundef zeroext i1 @_ZNKSt7__cxx1112basic_stringIcSt11char_traitsIcESaIcEE5emptyEv(ptr noundef nonnull align 8 dereferenceable(32) %parsingError) #27
  br i1 %call3, label %land.rhs, label %return

land.rhs:                                         ; preds = %if.else
  %decodeInfo_ = getelementptr inbounds i8, ptr %this, i64 880
  %call5 = tail call noundef zeroext i1 @_ZNK8proxygen16HeaderDecodeInfo9hasStatusEv(ptr noundef nonnull align 8 dereferenceable(140) %decodeInfo_)
  %lnot = xor i1 %call5, true
  br label %return

return:                                           ; preds = %entry, %_ZNK8proxygen10HTTP2Codec14parsingHeadersEv.exit, %if.else, %land.rhs, %if.then2
  %retval.0 = phi i1 [ %tobool, %if.then2 ], [ false, %if.else ], [ %lnot, %land.rhs ], [ false, %_ZNK8proxygen10HTTP2Codec14parsingHeadersEv.exit ], [ false, %entry ]
  ret i1 %retval.0
}